TN:
SF:/Users/jamesmaxwell/student/sem3/ppois/lab1m/multiset.cpp
FNL:0,110,138
FNA:0,141,_ZN8Multiset14ensureCapacityEi
FNL:1,140,144
FNA:1,141,_ZN8Multiset8addChildERKS_
FNL:2,146,152
FNA:2,540,_ZN8Multiset10skipSpacesERKNSt3__112basic_stringIcNS0_11char_traitsIcEENS0_9allocatorIcEEEERi
FNL:3,15,23
FNA:3,48,_ZN8MultisetC1ERKNSt3__112basic_stringIcNS0_11char_traitsIcEENS0_9allocatorIcEEEE
FNA:3,48,_ZN8MultisetC2ERKNSt3__112basic_stringIcNS0_11char_traitsIcEENS0_9allocatorIcEEEE
FNL:4,154,166
FNA:4,189,_ZN8Multiset9parseNodeERKNSt3__112basic_stringIcNS0_11char_traitsIcEENS0_9allocatorIcEEEERi
FNL:5,168,201
FNA:5,84,_ZN8Multiset8parseSetERKNSt3__112basic_stringIcNS0_11char_traitsIcEENS0_9allocatorIcEEEERi
FNL:6,203,206
FNA:6,105,_ZN8Multiset9parseAtomERKNSt3__112basic_stringIcNS0_11char_traitsIcEENS0_9allocatorIcEEEERi
FNL:7,209,212
FNA:7,48,_ZN8Multiset5parseERKNSt3__112basic_stringIcNS0_11char_traitsIcEENS0_9allocatorIcEEEE
FNL:8,25,31
FNA:8,108,_ZN8MultisetC1Ec
FNA:8,108,_ZN8MultisetC2Ec
FNL:9,33,38
FNA:9,3,_ZN8MultisetC1ERKS_
FNA:9,3,_ZN8MultisetC2ERKS_
FNL:10,40,45
FNA:10,426,_ZN8MultisetaSERKS_
FNL:11,48,50
FNA:11,726,_ZN8MultisetD1Ev
FNA:11,726,_ZN8MultisetD2Ev
FNL:12,52,53
FNA:12,6,_ZNK8Multiset6isAtomEv
FNL:13,56,57
FNA:13,9,_ZNK8Multiset5isSetEv
FNL:14,60,79
FNA:14,189,_ZNK8Multiset8toStringEv
FNL:15,7,13
FNA:15,567,_ZN8MultisetC1Ev
FNA:15,567,_ZN8MultisetC2Ev
FNL:16,81,88
FNA:16,1149,_ZN8Multiset5clearEv
FNL:17,90,108
FNA:17,426,_ZN8Multiset8copyFromERKS_
FNF:18
FNH:18
DA:7,1134
DA:8,567
DA:9,567
DA:10,567
DA:11,567
DA:12,567
DA:13,1134
DA:15,96
DA:16,48
DA:17,48
DA:18,48
DA:19,48
DA:20,48
DA:22,48
DA:23,96
DA:25,216
DA:26,108
DA:27,108
DA:28,108
DA:29,108
DA:30,108
DA:31,216
DA:33,6
DA:34,3
DA:35,3
DA:36,3
DA:37,3
DA:38,6
DA:40,426
DA:41,426
DA:42,423
DA:43,423
DA:44,423
DA:45,426
DA:48,1452
DA:49,726
DA:50,1452
DA:52,6
DA:53,6
DA:56,9
DA:57,9
DA:60,189
DA:61,189
DA:62,105
DA:63,105
DA:64,105
DA:65,105
DA:67,84
DA:68,84
DA:70,225
DA:71,141
DA:72,78
DA:73,78
DA:74,141
DA:75,141
DA:77,84
DA:78,84
DA:79,273
DA:81,1149
DA:82,1149
DA:83,180
DA:84,180
DA:85,180
DA:86,1149
DA:87,1149
DA:88,1149
DA:90,426
DA:91,426
DA:92,426
DA:94,426
DA:95,309
DA:96,309
DA:97,309
DA:98,309
DA:101,117
DA:102,117
DA:103,117
DA:105,345
DA:106,228
DA:107,228
DA:108,426
DA:110,141
DA:111,141
DA:112,78
DA:117,63
DA:118,63
DA:119,63
DA:120,0
DA:122,63
DA:123,0
DA:126,63
DA:128,63
DA:129,0
DA:130,0
DA:132,63
DA:133,0
DA:134,0
DA:136,63
DA:137,63
DA:138,141
DA:140,141
DA:141,141
DA:142,141
DA:143,141
DA:144,141
DA:146,540
DA:147,540
DA:148,1116
DA:149,576
DA:150,36
DA:152,540
DA:154,189
DA:155,189
DA:157,189
DA:158,0
DA:161,189
DA:162,84
DA:165,105
DA:166,189
DA:168,84
DA:169,84
DA:171,84
DA:172,84
DA:174,84
DA:175,21
DA:176,21
DA:179,63
DA:180,63
DA:182,204
DA:183,141
DA:184,141
DA:186,141
DA:187,141
DA:188,0
DA:189,141
DA:190,78
DA:191,78
DA:192,141
DA:193,63
DA:194,63
DA:195,63
DA:196,0
DA:198,141
DA:200,63
DA:201,84
DA:203,105
DA:204,105
DA:205,105
DA:206,105
DA:209,48
DA:210,48
DA:211,48
DA:212,48
LF:153
LH:144
end_of_record
