TN:
SF:/Users/jamesmaxwell/student/sem3/ppois/lab2/gallery.cpp
FNL:0,1003,1031
FNA:0,54,_ZN7Curator15organizeVintageEP17VintageExhibition
FNL:1,101,102
FNA:1,18,_ZNK7Artwork7getNameEv
FNL:2,1032,1056
FNA:2,90,_ZN7Curator20organizeContemporaryEP22ContemporaryExhibition
FNL:3,104,105
FNA:3,18,_ZNK7Artwork8getValueEv
FNL:4,1057,1072
FNA:4,108,_ZN7Curator18organizeMinimalistEP20MinimalistExhibition
FNL:5,107,108
FNA:5,36,_ZNK7Artwork15isAuthenticatedEv
FNL:6,1073,1095
FNA:6,108,_ZN7Curator16organizeAbstractEP18AbstractExhibition
FNL:7,1096,1110
FNA:7,126,_ZN7Curator16organizePortraitEP18PortraitExhibition
FNL:8,11,12
FNA:8,36,_ZNK9Dimension5getIdEv
FNL:9,110,116
FNA:9,72,_ZNK7Artwork24calculateMaintenanceCostEv
FNL:10,1111,1132
FNA:10,90,_ZN7Curator17organizeLandscapeEP19LandscapeExhibition
FNL:11,1133,1159
FNA:11,108,_ZN7Curator19organizeRestorationEP21RestorationExhibition
FNL:12,1160,1184
FNA:12,126,_ZN7Curator17organizeTemporaryEP19TemporaryExhibition
FNL:13,118,119
FNA:13,72,_ZNK7Artwork21isAvailableForDisplayEv
FNL:14,1185,1212
FNA:14,126,_ZN7Curator17organizePermanentEP19PermanentExhibition
FNL:15,121,128
FNA:15,54,_ZNK7Artwork21calculateDepreciationEi
FNL:16,1213,1237
FNA:16,126,_ZN7Curator19organizeInteractiveEP21InteractiveExhibition
FNL:17,1238,1262
FNA:17,126,_ZN7Curator16organizeThematicEP18ThematicExhibition
FNL:18,1263,1289
FNA:18,126,_ZN7Curator21organizeRetrospectiveEP23RetrospectiveExhibition
FNL:19,129,135
FNA:19,18,_ZNK7Artwork15needsInspectionEv
FNL:20,1290,1316
FNA:20,144,_ZN7Curator13organizeGroupEP15GroupExhibition
FNL:21,1317,1340
FNA:21,108,_ZN7Curator12organizeSoloEP14SoloExhibition
FNL:22,1341,1342
FNA:22,558,_ZN7VisitorC1EPKcib
FNA:22,558,_ZN7VisitorC2EPKcib
FNL:23,1343,1346
FNA:23,18,_ZN7Visitor14purchaseTicketEv
FNL:24,1347,1352
FNA:24,36,_ZN7Visitor12enterGalleryEv
FNL:25,1353,1359
FNA:25,54,_ZN7Visitor11viewArtworkEP7Artwork
FNL:26,136,142
FNA:26,54,_ZNK7Artwork24calculateRestorationCostEd
FNL:27,1360,1363
FNA:27,144,_ZN7Visitor11addFavoriteEv
FNL:28,1364,1367
FNA:28,18,_ZN7Visitor14joinGuidedTourEv
FNL:29,1368,1369
FNA:29,36,_ZNK7Visitor19canAccessRestrictedEv
FNL:30,1371,1372
FNA:30,0,_ZNK7Visitor14getAccessLevelEv
FNL:31,1374,1375
FNA:31,18,_ZNK7Visitor7getNameEv
FNL:32,1377,1378
FNA:32,36,_ZNK7Visitor16getVisitDurationEv
FNL:33,1380,1381
FNA:33,18,_ZNK7Visitor27calculateTotalBaggageWeightEdd
FNL:34,1383,1388
FNA:34,36,_ZNK7Visitor12hasValidVisaEPKc
FNL:35,1389,1396
FNA:35,36,_ZNK7Visitor24calculateLoyaltyDiscountEd
FNL:36,1397,1402
FNA:36,36,_ZN7Visitor18requestSpecialMealEPKc
FNL:37,14,16
FNA:37,18,_ZN9Dimension12setPrecisionEd
FNL:38,1403,1408
FNA:38,36,_ZN7Visitor20checkInForExhibitionEPKc
FNL:39,1409,1414
FNA:39,36,_ZN7Visitor17cancelReservationEi
FNL:40,1415,1416
FNA:40,18,_ZNK7Visitor24calculateTotalTravelCostEddd
FNL:41,1418,1422
FNA:41,216,_ZN11GalleryMenuC1Ev
FNA:41,216,_ZN11GalleryMenuC2Ev
FNL:42,1423,1429
FNA:42,108,_ZNK11GalleryMenu4showEv
FNL:43,143,144
FNA:43,270,_ZN11GalleryToolC1EPKcbbi
FNA:43,8352,_ZN11GalleryToolC2EPKcbbi
FNL:44,1430,1435
FNA:44,216,_ZN11GalleryMenu13addExhibitionEP10Exhibition
FNL:45,1436,1438
FNA:45,18,_ZN11GalleryMenu10setVisitorEP7Visitor
FNL:46,1439,1460
FNA:46,54,_ZN11GalleryMenu3runEv
FNL:47,145,156
FNA:47,828,_ZN11GalleryTool7useToolEv
FNL:48,1461,1462
FNA:48,36,_ZNK11GalleryMenu18getExhibitionCountEv
FNL:49,1464,1465
FNA:49,36,_ZNK11GalleryMenu17getCurrentVisitorEv
FNL:50,1467,1474
FNA:50,54,_ZNK11GalleryMenu17searchExhibitionsEPKc
FNL:51,1476,1483
FNA:51,18,_ZNK11GalleryMenu26filterAvailableExhibitionsEv
FNL:52,1485,1495
FNA:52,18,_ZN11GalleryMenu21sortExhibitionsByNameEv
FNL:53,1496,1501
FNA:53,72,_ZNK11GalleryMenu20getExhibitionByIndexEi
FNL:54,1502,1503
FNA:54,126,_ZNK10Exhibition13isFullyBookedEv
FNL:55,1505,1506
FNA:55,18,_ZNK10Exhibition27calculateExhibitionDurationEv
FNL:56,1508,1509
FNA:56,18,_ZNK10Exhibition8isOnTimeEv
FNL:57,1511,1512
FNA:57,18,_ZNK10Exhibition17getAvailableSeatsEv
FNL:58,1514,1516
FNA:58,612,_ZN12TicketSystemC1EPKci
FNA:58,612,_ZN12TicketSystemC2EPKci
FNL:59,1517,1528
FNA:59,126,_ZN12TicketSystem13createBookingEP7VisitorP10Exhibition
FNL:60,1529,1535
FNA:60,54,_ZN12TicketSystem13cancelBookingEi
FNL:61,1536,1543
FNA:61,54,_ZN12TicketSystem20calculateTicketPriceEP10ExhibitionP7Visitor
FNL:62,1544,1550
FNA:62,126,_ZN12TicketSystem14processPaymentEdPKc
FNL:63,1551,1559
FNA:63,162,_ZN12TicketSystem13transferMoneyEPKcS1_d
FNL:64,1560,1565
FNA:64,126,_ZN12TicketSystem14verifyPasswordEPKcS1_
FNL:65,1566,1571
FNA:65,36,_ZN12TicketSystem27checkExhibitionAvailabilityEP10Exhibition
FNL:66,157,159
FNA:66,18,_ZN11GalleryTool9cleanToolEv
FNL:67,1572,1577
FNA:67,108,_ZN12TicketSystem11reserveSeatEP7Visitori
FNL:68,1578,1583
FNA:68,90,_ZN12TicketSystem21cancelSeatReservationEi
FNL:69,1584,1593
FNA:69,90,_ZN12TicketSystem19calculateBaggageFeeEd
FNL:70,1594,1599
FNA:70,36,_ZN12TicketSystem20checkVisaRequirementEP7VisitorP10Exhibition
FNL:71,160,163
FNA:71,144,_ZN11GalleryTool9breakToolEv
FNL:72,1600,1601
FNA:72,72,_ZNK12TicketSystem15getTotalRevenueEv
FNL:73,1603,1604
FNA:73,36,_ZNK12TicketSystem16getTotalBookingsEv
FNL:74,1606,1607
FNA:74,18,_ZNK12TicketSystem14isSystemActiveEv
FNL:75,164,165
FNA:75,1170,_ZNK11GalleryTool11isAvailableEv
FNL:76,167,168
FNA:76,18,_ZNK11GalleryTool7getNameEv
FNL:77,17,18
FNA:77,0,_ZNK9Dimension10isStandardEv
FNL:78,170,172
FNA:78,2322,_ZN5FrameC1EPKcbii
FNA:78,2322,_ZN5FrameC2EPKcbii
FNL:79,173,175
FNA:79,36,_ZN5Frame13addProtectionEv
FNL:80,176,178
FNA:80,18,_ZN5Frame16removeProtectionEv
FNL:81,179,180
FNA:81,144,_ZNK5Frame10canProtectEv
FNL:82,182,183
FNA:82,18,_ZNK5Frame8getWidthEv
FNL:83,185,196
FNA:83,72,_ZNK5Frame21calculateComfortScoreEv
FNL:84,198,203
FNA:84,108,_ZNK5Frame20isSuitableForArtworkEd
FNL:85,20,23
FNA:85,90,_ZNK9Dimension15fromCentimetersEd
FNL:86,204,207
FNA:86,90,_ZN5Frame14adjustPositionEi
FNL:87,208,210
FNA:87,2538,_ZN8LightingC1EPKcbbi
FNA:87,2538,_ZN8LightingC2EPKcbbi
FNL:88,211,213
FNA:88,18,_ZN8Lighting3dimEv
FNL:89,214,216
FNA:89,288,_ZN8Lighting8brightenEv
FNL:90,217,218
FNA:90,90,_ZNK8Lighting16isSafeForArtworkEv
FNL:91,220,221
FNA:91,36,_ZNK8Lighting5isLEDEv
FNL:92,223,228
FNA:92,90,_ZNK8Lighting25calculatePowerConsumptionEv
FNL:93,229,233
FNA:93,90,_ZN8Lighting13setBrightnessEi
FNL:94,234,235
FNA:94,54,_ZNK8Lighting20meetsSafetyStandardsEv
FNL:95,237,239
FNA:95,1080,_ZN14SecurityCameraC1EPKcdbb
FNA:95,1080,_ZN14SecurityCameraC2EPKcdbb
FNL:96,24,30
FNA:96,18,_ZNK9Dimension9convertToEdPS_
FNL:97,240,247
FNA:97,162,_ZN14SecurityCamera14startRecordingEv
FNL:98,248,251
FNA:98,36,_ZN14SecurityCamera13stopRecordingEv
FNL:99,252,253
FNA:99,54,_ZNK14SecurityCamera11isRecordingEv
FNL:100,255,256
FNA:100,54,_ZNK14SecurityCamera8getAngleEv
FNL:101,258,262
FNA:101,72,_ZN14SecurityCamera11adjustAngleEd
FNL:102,263,269
FNA:102,126,_ZNK14SecurityCamera21calculateCoverageAreaEd
FNL:103,270,276
FNA:103,90,_ZNK14SecurityCamera14canMonitorAreaEd
FNL:104,277,279
FNA:104,1350,_ZN12DisplayStandC1EPKcdbb
FNA:104,1350,_ZN12DisplayStandC2EPKcdbb
FNL:105,280,286
FNA:105,252,_ZN12DisplayStand12startDisplayEv
FNL:106,287,289
FNA:106,18,_ZN12DisplayStand11stopDisplayEv
FNL:107,290,291
FNA:107,126,_ZNK12DisplayStand10canDisplayEd
FNL:108,293,294
FNA:108,36,_ZNK12DisplayStand13checkHasCoverEv
FNL:109,296,301
FNA:109,54,_ZNK12DisplayStand20calculateDisplayTimeEi
FNL:110,3,4
FNA:110,252,_ZN9DimensionC1EPKcdbi
FNA:110,252,_ZN9DimensionC2EPKcdbi
FNL:111,302,304
FNA:111,54,_ZNK12DisplayStand20canHandleVisitorLoadEi
FNL:112,306,311
FNA:112,36,_ZNK12DisplayStand20calculateUtilizationEv
FNL:113,31,32
FNA:113,36,_ZNK9Dimension18validateConversionEd
FNL:114,312,313
FNA:114,3312,_ZN5TimerC1Eibii
FNA:114,3312,_ZN5TimerC2Eibii
FNL:115,314,321
FNA:115,612,_ZN5Timer5startEi
FNL:116,322,330
FNA:116,3582,_ZN5Timer4tickEi
FNL:117,331,332
FNA:117,3780,_ZNK5Timer10isFinishedEv
FNL:118,334,335
FNA:118,54,_ZNK5Timer10getElapsedEv
FNL:119,337,338
FNA:119,90,_ZNK5Timer9isRunningEv
FNL:120,34,35
FNA:120,5760,_ZN4SizeC1EdP9Dimensionbi
FNA:120,5760,_ZN4SizeC2EdP9Dimensionbi
FNL:121,340,345
FNA:121,36,_ZNK5Timer22calculateRemainingTimeEv
FNL:122,346,349
FNA:122,18,_ZN5Timer5resetEv
FNL:123,350,352
FNA:123,36,_ZN5Timer5pauseEv
FNL:124,353,357
FNA:124,36,_ZN5Timer6resumeEv
FNL:125,358,360
FNA:125,594,_ZN14RestorationKitC1EPKcb
FNA:125,594,_ZN14RestorationKitC2EPKcb
FNL:126,36,41
FNA:126,918,_ZNK4Size13toCentimetersEv
FNL:127,361,364
FNA:127,108,_ZN14RestorationKit5equipEv
FNL:128,366,369
FNA:128,54,_ZN14RestorationKit7unequipEv
FNL:129,371,383
FNA:129,54,_ZN14RestorationKit7restoreEv
FNL:130,384,385
FNA:130,126,_ZNK14RestorationKit10isEquippedEv
FNL:131,387,392
FNA:131,36,_ZNK14RestorationKit30calculateRestorationEfficiencyEv
FNL:132,393,394
FNA:132,36,_ZNK14RestorationKit16hasRequiredToolsEi
FNL:133,396,398
FNA:133,198,_ZN11CleaningKitC1EPKci
FNA:133,198,_ZN11CleaningKitC2EPKci
FNL:134,399,405
FNA:134,108,_ZN11CleaningKit5cleanEv
FNL:135,406,407
FNA:135,18,_ZNK11CleaningKit5getIdEv
FNL:136,409,410
FNA:136,1188,_ZN16ConditionProfileC1Eddib
FNA:136,1188,_ZN16ConditionProfileC2Eddib
FNL:137,411,417
FNA:137,702,_ZNK16ConditionProfile11currentTempEi
FNL:138,418,419
FNA:138,90,_ZNK16ConditionProfile9isReachedEd
FNL:139,42,44
FNA:139,792,_ZN4Size5scaleEd
FNL:140,421,425
FNA:140,306,_ZN16ConditionProfile5resetEddi
FNL:141,426,427
FNA:141,18,_ZNK16ConditionProfile11getDurationEv
FNL:142,429,434
FNA:142,18,_ZNK16ConditionProfile30calculateTemperatureChangeRateEv
FNL:143,435,436
FNA:143,18,_ZNK16ConditionProfile14isValidProfileEv
FNL:144,438,444
FNA:144,18,_ZNK16ConditionProfile26getEstimatedCompletionTimeEi
FNL:145,445,454
FNA:145,936,_ZN14ClimateControlC1Edbb
FNA:145,936,_ZN14ClimateControlC2Edbb
FNL:146,45,46
FNA:146,18,_ZNK4Size6isZeroEv
FNL:147,455,469
FNA:147,360,_ZN14ClimateControl13setConditionsEdi
FNL:148,470,473
FNA:148,72,_ZN14ClimateControl7turnOffEv
FNL:149,474,476
FNA:149,36,_ZN14ClimateControl9closeDoorEv
FNL:150,477,479
FNA:150,18,_ZN14ClimateControl8openDoorEv
FNL:151,48,49
FNA:151,18,_ZNK4Size8getValueEv
FNL:152,480,485
FNA:152,144,_ZN14ClimateControl15setTimerMinutesEi
FNL:153,486,496
FNA:153,576,_ZN14ClimateControl4tickEi
FNL:154,497,498
FNA:154,594,_ZNK14ClimateControl4isOnEv
FNL:155,5,6
FNA:155,954,_ZNK9Dimension13toCentimetersEd
FNL:156,500,501
FNA:156,90,_ZNK14ClimateControl14getTemperatureEv
FNL:157,503,504
FNA:157,36,_ZNK14ClimateControl12isDoorClosedEv
FNL:158,506,508
FNA:158,36,_ZN14ClimateControl11setHumidityEd
FNL:159,509,511
FNA:159,36,_ZN14ClimateControl13activateAlarmEv
FNL:160,51,52
FNA:160,36,_ZNK4Size13isApproximateEv
FNL:161,512,513
FNA:161,54,_ZNK14ClimateControl13isAlarmActiveEv
FNL:162,515,516
FNA:162,72,_ZNK14ClimateControl11getHumidityEv
FNL:163,518,519
FNA:163,0,_ZNK14ClimateControl17getTargetHumidityEv
FNL:164,521,526
FNA:164,18,_ZNK14ClimateControl26calculateEnergyConsumptionEv
FNL:165,527,528
FNA:165,18,_ZNK14ClimateControl16isOptimalClimateEv
FNL:166,530,536
FNA:166,108,_ZN14ClimateControl26adjustTemperatureGraduallyEdi
FNL:167,537,538
FNA:167,18,_ZNK14ClimateControl28calculateMaintenanceScheduleEv
FNL:168,54,60
FNA:168,18,_ZNK4Size18convertToDimensionEP9Dimension
FNL:169,540,541
FNA:169,450,_ZN14SecuritySystemC1Eiibb
FNA:169,450,_ZN14SecuritySystemC2Eiibb
FNL:170,542,547
FNA:170,144,_ZN14SecuritySystem12activateZoneEv
FNL:171,548,555
FNA:171,54,_ZN14SecuritySystem14deactivateZoneEv
FNL:172,556,557
FNA:172,180,_ZNK14SecuritySystem9freeZonesEv
FNL:173,559,560
FNA:173,36,_ZNK14SecuritySystem4isOnEv
FNL:174,562,564
FNA:174,18,_ZN14SecuritySystem16activateAllZonesEv
FNL:175,565,567
FNA:175,18,_ZN14SecuritySystem18deactivateAllZonesEv
FNL:176,568,569
FNA:176,54,_ZNK14SecuritySystem19checkSecurityBreachEv
FNL:177,571,576
FNA:177,72,_ZNK14SecuritySystem25calculateSecurityCoverageEv
FNL:178,577,577
FNA:178,2862,_ZN10ExhibitionC2EPKc
FNL:179,578,588
FNA:179,540,_ZN18PaintingExhibitionC1EPKcP7ArtworkS3_P5FrameP8LightingP5TimerP7Curator
FNA:179,540,_ZN18PaintingExhibitionC2EPKcP7ArtworkS3_P5FrameP8LightingP5TimerP7Curator
FNL:180,589,594
FNA:180,126,_ZN18PaintingExhibition8organizeEv
FNL:181,595,601
FNA:181,90,_ZN19SculptureExhibitionC1EPKcP7ArtworkP12DisplayStandP8LightingP5FrameP7Curator
FNA:181,90,_ZN19SculptureExhibitionC2EPKcP7ArtworkP12DisplayStandP8LightingP5FrameP7Curator
FNL:182,602,607
FNA:182,90,_ZN19SculptureExhibition8organizeEv
FNL:183,608,617
FNA:183,126,_ZN21PhotographyExhibitionC1EPKcP7ArtworkS3_P5FrameP8LightingP14SecurityCameraP5TimerP7Curator
FNA:183,126,_ZN21PhotographyExhibitionC2EPKcP7ArtworkS3_P5FrameP8LightingP14SecurityCameraP5TimerP7Curator
FNL:184,61,64
FNA:184,18,_ZNK4Size19calculateDifferenceERKS_
FNL:185,618,623
FNA:185,126,_ZN21PhotographyExhibition8organizeEv
FNL:186,624,636
FNA:186,144,_ZN20MixedMediaExhibitionC1EPKcP7ArtworkS3_S3_P12DisplayStandP8LightingP5FrameP5TimerP14RestorationKitP7Curator
FNA:186,144,_ZN20MixedMediaExhibitionC2EPKcP7ArtworkS3_S3_P12DisplayStandP8LightingP5FrameP5TimerP14RestorationKitP7Curator
FNL:187,637,642
FNA:187,144,_ZN20MixedMediaExhibition8organizeEv
FNL:188,643,652
FNA:188,126,_ZN20DigitalArtExhibitionC1EPKcP7ArtworkS3_P12DisplayStandP8LightingP14SecurityCameraP5TimerP7Curator
FNA:188,126,_ZN20DigitalArtExhibitionC2EPKcP7ArtworkS3_P12DisplayStandP8LightingP14SecurityCameraP5TimerP7Curator
FNL:189,653,658
FNA:189,126,_ZN20DigitalArtExhibition8organizeEv
FNL:190,659,667
FNA:190,72,_ZN17VintageExhibitionC1EPKcP7ArtworkS3_P5FrameP14ClimateControlP14RestorationKitP7Curator
FNA:190,72,_ZN17VintageExhibitionC2EPKcP7ArtworkS3_P5FrameP14ClimateControlP14RestorationKitP7Curator
FNL:191,66,67
FNA:191,5562,_ZN7ArtworkC1EPKcRK4Sizedb
FNA:191,5562,_ZN7ArtworkC2EPKcRK4Sizedb
FNL:192,668,673
FNA:192,72,_ZN17VintageExhibition8organizeEv
FNL:193,674,683
FNA:193,108,_ZN22ContemporaryExhibitionC1EPKcP7ArtworkS3_P12DisplayStandP8LightingP14SecurityCameraP5TimerP7Curator
FNA:193,108,_ZN22ContemporaryExhibitionC2EPKcP7ArtworkS3_P12DisplayStandP8LightingP14SecurityCameraP5TimerP7Curator
FNL:194,68,75
FNA:194,54,_ZN7Artwork7addSizeEd
FNL:195,684,689
FNA:195,108,_ZN22ContemporaryExhibition8organizeEv
FNL:196,690,695
FNA:196,108,_ZN20MinimalistExhibitionC1EPKcP7ArtworkP5FrameP8LightingP7Curator
FNA:196,108,_ZN20MinimalistExhibitionC2EPKcP7ArtworkP5FrameP8LightingP7Curator
FNL:197,696,701
FNA:197,108,_ZN20MinimalistExhibition8organizeEv
FNL:198,702,711
FNA:198,126,_ZN18AbstractExhibitionC1EPKcP7ArtworkS3_P12DisplayStandP8LightingP5FrameP5TimerP7Curator
FNA:198,126,_ZN18AbstractExhibitionC2EPKcP7ArtworkS3_P12DisplayStandP8LightingP5FrameP5TimerP7Curator
FNL:199,712,717
FNA:199,126,_ZN18AbstractExhibition8organizeEv
FNL:200,718,726
FNA:200,126,_ZN18PortraitExhibitionC1EPKcP7ArtworkS3_P5FrameP8LightingP14SecurityCameraP7Curator
FNA:200,126,_ZN18PortraitExhibitionC2EPKcP7ArtworkS3_P5FrameP8LightingP14SecurityCameraP7Curator
FNL:201,727,732
FNA:201,126,_ZN18PortraitExhibition8organizeEv
FNL:202,733,741
FNA:202,108,_ZN19LandscapeExhibitionC1EPKcP7ArtworkS3_P5FrameP8LightingP5TimerP7Curator
FNA:202,108,_ZN19LandscapeExhibitionC2EPKcP7ArtworkS3_P5FrameP8LightingP5TimerP7Curator
FNL:203,742,747
FNA:203,108,_ZN19LandscapeExhibition8organizeEv
FNL:204,748,757
FNA:204,126,_ZN21RestorationExhibitionC1EPKcP7ArtworkP14RestorationKitP11CleaningKitP14ClimateControlP5TimerP7Curator
FNA:204,126,_ZN21RestorationExhibitionC2EPKcP7ArtworkP14RestorationKitP11CleaningKitP14ClimateControlP5TimerP7Curator
FNL:205,758,763
FNA:205,126,_ZN21RestorationExhibition8organizeEv
FNL:206,76,85
FNA:206,738,_ZN7Artwork7useSizeEd
FNL:207,764,773
FNA:207,144,_ZN19TemporaryExhibitionC1EPKcP7ArtworkS3_P12DisplayStandP8LightingP14SecurityCameraP5TimerP7Curator
FNA:207,144,_ZN19TemporaryExhibitionC2EPKcP7ArtworkS3_P12DisplayStandP8LightingP14SecurityCameraP5TimerP7Curator
FNL:208,774,779
FNA:208,144,_ZN19TemporaryExhibition8organizeEv
FNL:209,780,789
FNA:209,144,_ZN19PermanentExhibitionC1EPKcP7ArtworkS3_P5FrameP14ClimateControlP14SecuritySystemP5TimerP7Curator
FNA:209,144,_ZN19PermanentExhibitionC2EPKcP7ArtworkS3_P5FrameP14ClimateControlP14SecuritySystemP5TimerP7Curator
FNL:210,790,795
FNA:210,144,_ZN19PermanentExhibition8organizeEv
FNL:211,796,805
FNA:211,144,_ZN21InteractiveExhibitionC1EPKcP7ArtworkS3_P12DisplayStandP8LightingP14SecurityCameraP5TimerP7Curator
FNA:211,144,_ZN21InteractiveExhibitionC2EPKcP7ArtworkS3_P12DisplayStandP8LightingP14SecurityCameraP5TimerP7Curator
FNL:212,8,9
FNA:212,72,_ZNK9Dimension8isMetricEv
FNL:213,806,811
FNA:213,144,_ZN21InteractiveExhibition8organizeEv
FNL:214,812,822
FNA:214,144,_ZN18ThematicExhibitionC1EPKcP7ArtworkS3_S3_P5FrameP12DisplayStandP8LightingP5TimerP7Curator
FNA:214,144,_ZN18ThematicExhibitionC2EPKcP7ArtworkS3_S3_P5FrameP12DisplayStandP8LightingP5TimerP7Curator
FNL:215,823,828
FNA:215,144,_ZN18ThematicExhibition8organizeEv
FNL:216,829,838
FNA:216,144,_ZN23RetrospectiveExhibitionC1EPKcP7ArtworkS3_P5FrameP14ClimateControlP14RestorationKitP5TimerP7Curator
FNA:216,144,_ZN23RetrospectiveExhibitionC2EPKcP7ArtworkS3_P5FrameP14ClimateControlP14RestorationKitP5TimerP7Curator
FNL:217,839,844
FNA:217,144,_ZN23RetrospectiveExhibition8organizeEv
FNL:218,845,856
FNA:218,162,_ZN15GroupExhibitionC1EPKcP7ArtworkS3_S3_P12DisplayStandP8LightingP5FrameP14SecurityCameraP5TimerP7Curator
FNA:218,162,_ZN15GroupExhibitionC2EPKcP7ArtworkS3_S3_P12DisplayStandP8LightingP5FrameP14SecurityCameraP5TimerP7Curator
FNL:219,857,862
FNA:219,162,_ZN15GroupExhibition8organizeEv
FNL:220,86,87
FNA:220,72,_ZNK7Artwork9isFragileEv
FNL:221,863,872
FNA:221,126,_ZN14SoloExhibitionC1EPKcP7ArtworkS3_P5FrameP8LightingP12DisplayStandP5TimerP7Curator
FNA:221,126,_ZN14SoloExhibitionC2EPKcP7ArtworkS3_P5FrameP8LightingP12DisplayStandP5TimerP7Curator
FNL:222,873,878
FNA:222,126,_ZN14SoloExhibition8organizeEv
FNL:223,879,880
FNA:223,2430,_ZN7CuratorC1EPKc
FNA:223,2430,_ZN7CuratorC2EPKc
FNL:224,881,903
FNA:224,108,_ZN7Curator16organizePaintingEP18PaintingExhibition
FNL:225,89,91
FNA:225,72,_ZN7Artwork12authenticateEv
FNL:226,904,916
FNA:226,90,_ZN7Curator17organizeSculptureEP19SculptureExhibition
FNL:227,917,947
FNA:227,108,_ZN7Curator19organizePhotographyEP21PhotographyExhibition
FNL:228,92,94
FNA:228,18,_ZN7Artwork17setInsuranceValueEd
FNL:229,948,975
FNA:229,126,_ZN7Curator18organizeMixedMediaEP20MixedMediaExhibition
FNL:230,95,96
FNA:230,0,_ZNK7Artwork7getYearEv
FNL:231,976,1002
FNA:231,108,_ZN7Curator18organizeDigitalArtEP20DigitalArtExhibition
FNL:232,98,99
FNA:232,36,_ZNK7Artwork9getArtistEv
FNF:233
FNH:229
DA:3,504
DA:4,504
DA:5,954
DA:6,954
DA:8,72
DA:9,72
DA:11,36
DA:12,36
DA:14,18
DA:15,18
DA:16,18
DA:17,0
DA:18,0
DA:20,90
DA:21,90
DA:22,90
DA:23,90
DA:24,18
DA:25,18
DA:26,0
DA:28,18
DA:29,18
DA:30,18
DA:31,36
DA:32,36
DA:34,11520
DA:35,11520
DA:36,918
DA:37,918
DA:38,18
DA:40,900
DA:41,0
DA:42,792
DA:43,792
DA:44,792
DA:45,18
DA:46,18
DA:48,18
DA:49,18
DA:51,36
DA:52,36
DA:54,18
DA:55,18
DA:56,0
DA:58,18
DA:59,18
DA:60,18
DA:61,18
DA:62,18
DA:63,18
DA:64,18
DA:66,11124
DA:67,11124
DA:68,54
DA:69,54
DA:70,54
DA:71,54
DA:72,36
DA:73,36
DA:74,36
DA:75,54
DA:76,738
DA:77,738
DA:78,738
DA:79,18
DA:81,720
DA:82,702
DA:83,702
DA:84,702
DA:85,720
DA:86,72
DA:87,72
DA:89,72
DA:90,72
DA:91,72
DA:92,18
DA:93,18
DA:94,18
DA:95,0
DA:96,0
DA:98,36
DA:99,36
DA:101,18
DA:102,18
DA:104,18
DA:105,18
DA:107,36
DA:108,36
DA:110,72
DA:111,72
DA:112,72
DA:113,18
DA:114,18
DA:115,72
DA:116,72
DA:118,72
DA:119,72
DA:121,54
DA:122,54
DA:123,54
DA:125,0
DA:126,0
DA:127,0
DA:128,54
DA:129,18
DA:130,18
DA:131,18
DA:133,0
DA:134,0
DA:135,18
DA:136,54
DA:137,54
DA:138,36
DA:140,18
DA:141,18
DA:142,54
DA:143,8622
DA:144,8622
DA:145,828
DA:146,828
DA:147,90
DA:149,738
DA:150,738
DA:151,738
DA:152,54
DA:153,54
DA:154,54
DA:155,738
DA:156,738
DA:157,18
DA:158,18
DA:159,18
DA:160,144
DA:161,144
DA:162,144
DA:163,144
DA:164,1170
DA:165,1170
DA:167,18
DA:168,18
DA:170,4644
DA:171,2322
DA:172,4644
DA:173,36
DA:174,36
DA:175,36
DA:176,18
DA:177,18
DA:178,18
DA:179,144
DA:180,144
DA:182,18
DA:183,18
DA:185,72
DA:186,72
DA:187,72
DA:188,54
DA:189,54
DA:190,72
DA:191,36
DA:192,36
DA:193,72
DA:194,72
DA:195,72
DA:196,72
DA:198,108
DA:199,108
DA:200,36
DA:202,72
DA:203,108
DA:204,90
DA:205,90
DA:206,54
DA:207,90
DA:208,5076
DA:209,2538
DA:210,5076
DA:211,18
DA:212,18
DA:213,18
DA:214,288
DA:215,288
DA:216,288
DA:217,90
DA:218,90
DA:220,36
DA:221,36
DA:223,90
DA:224,90
DA:225,54
DA:227,36
DA:228,90
DA:229,90
DA:230,90
DA:231,54
DA:232,54
DA:233,90
DA:234,54
DA:235,54
DA:237,2160
DA:238,1080
DA:239,2160
DA:240,162
DA:241,162
DA:242,18
DA:244,144
DA:245,144
DA:246,144
DA:247,144
DA:248,36
DA:249,36
DA:250,36
DA:251,36
DA:252,54
DA:253,54
DA:255,54
DA:256,54
DA:258,72
DA:259,72
DA:260,36
DA:261,36
DA:262,72
DA:263,126
DA:264,126
DA:265,36
DA:267,90
DA:268,90
DA:269,126
DA:270,90
DA:271,90
DA:272,54
DA:274,36
DA:275,36
DA:276,90
DA:277,2700
DA:278,1350
DA:279,2700
DA:280,252
DA:281,252
DA:282,36
DA:284,216
DA:285,216
DA:286,216
DA:287,18
DA:288,18
DA:289,18
DA:290,126
DA:291,126
DA:293,36
DA:294,36
DA:296,54
DA:297,54
DA:298,36
DA:300,18
DA:301,54
DA:302,54
DA:303,54
DA:304,54
DA:306,36
DA:307,36
DA:308,0
DA:310,36
DA:311,36
DA:312,6624
DA:313,6624
DA:314,612
DA:315,612
DA:316,36
DA:318,576
DA:319,576
DA:320,576
DA:321,576
DA:322,3582
DA:323,3582
DA:324,3546
DA:325,3456
DA:326,3456
DA:327,378
DA:328,378
DA:329,378
DA:330,3582
DA:331,3780
DA:332,3780
DA:334,54
DA:335,54
DA:337,90
DA:338,90
DA:340,36
DA:341,36
DA:342,18
DA:344,18
DA:345,36
DA:346,18
DA:347,18
DA:348,18
DA:349,18
DA:350,36
DA:351,36
DA:352,36
DA:353,36
DA:354,36
DA:355,36
DA:356,36
DA:357,36
DA:358,1188
DA:359,594
DA:360,1188
DA:361,108
DA:362,108
DA:363,108
DA:364,108
DA:366,54
DA:367,54
DA:368,54
DA:369,54
DA:371,54
DA:372,54
DA:373,18
DA:374,18
DA:376,36
DA:377,18
DA:379,18
DA:380,18
DA:381,18
DA:382,18
DA:383,36
DA:384,126
DA:385,126
DA:387,36
DA:388,36
DA:389,18
DA:391,18
DA:392,36
DA:393,36
DA:394,36
DA:396,396
DA:397,198
DA:398,396
DA:399,108
DA:400,108
DA:401,18
DA:403,90
DA:404,90
DA:405,90
DA:406,18
DA:407,18
DA:409,2376
DA:410,2376
DA:411,702
DA:412,702
DA:413,576
DA:415,126
DA:416,126
DA:417,702
DA:418,90
DA:419,90
DA:421,306
DA:422,306
DA:423,306
DA:424,306
DA:425,306
DA:426,18
DA:427,18
DA:429,18
DA:430,18
DA:431,0
DA:433,18
DA:434,18
DA:435,18
DA:436,18
DA:438,18
DA:439,18
DA:440,0
DA:442,18
DA:443,18
DA:444,18
DA:445,1872
DA:446,936
DA:447,936
DA:448,936
DA:449,936
DA:450,936
DA:451,936
DA:452,936
DA:453,936
DA:454,1872
DA:455,360
DA:456,360
DA:457,54
DA:459,306
DA:460,18
DA:462,288
DA:463,36
DA:465,252
DA:466,252
DA:467,252
DA:468,252
DA:469,252
DA:470,72
DA:471,72
DA:472,72
DA:473,72
DA:474,36
DA:475,36
DA:476,36
DA:477,18
DA:478,18
DA:479,18
DA:480,144
DA:481,144
DA:482,54
DA:484,90
DA:485,90
DA:486,576
DA:487,576
DA:488,558
DA:489,540
DA:490,540
DA:491,540
DA:492,558
DA:493,558
DA:494,54
DA:495,54
DA:496,576
DA:497,594
DA:498,594
DA:500,90
DA:501,90
DA:503,36
DA:504,36
DA:506,36
DA:507,36
DA:508,36
DA:509,36
DA:510,36
DA:511,36
DA:512,54
DA:513,54
DA:515,72
DA:516,72
DA:518,0
DA:519,0
DA:521,18
DA:522,18
DA:523,0
DA:525,18
DA:526,18
DA:527,18
DA:528,18
DA:530,108
DA:531,108
DA:532,36
DA:533,36
DA:534,36
DA:535,36
DA:536,108
DA:537,18
DA:538,18
DA:540,900
DA:541,900
DA:542,144
DA:543,144
DA:544,126
DA:545,126
DA:546,126
DA:547,144
DA:548,54
DA:549,54
DA:550,36
DA:551,36
DA:552,0
DA:553,0
DA:554,36
DA:555,54
DA:556,180
DA:557,180
DA:559,36
DA:560,36
DA:562,18
DA:563,18
DA:564,18
DA:565,18
DA:566,18
DA:567,18
DA:568,54
DA:569,54
DA:571,72
DA:572,72
DA:573,18
DA:575,54
DA:576,72
DA:577,2862
DA:578,1080
DA:585,540
DA:586,540
DA:587,540
DA:588,1620
DA:589,126
DA:590,126
DA:591,18
DA:593,108
DA:594,108
DA:595,180
DA:601,180
DA:602,90
DA:603,90
DA:604,18
DA:606,72
DA:607,72
DA:608,252
DA:616,252
DA:617,378
DA:618,126
DA:619,126
DA:620,18
DA:622,108
DA:623,108
DA:624,288
DA:634,288
DA:635,144
DA:636,432
DA:637,144
DA:638,144
DA:639,18
DA:641,126
DA:642,126
DA:643,252
DA:651,252
DA:652,378
DA:653,126
DA:654,126
DA:655,18
DA:657,108
DA:658,108
DA:659,144
DA:666,144
DA:667,216
DA:668,72
DA:669,72
DA:670,18
DA:672,54
DA:673,54
DA:674,216
DA:682,216
DA:683,324
DA:684,108
DA:685,108
DA:686,18
DA:688,90
DA:689,90
DA:690,216
DA:695,216
DA:696,108
DA:697,108
DA:698,18
DA:700,90
DA:701,90
DA:702,252
DA:710,252
DA:711,378
DA:712,126
DA:713,126
DA:714,18
DA:716,108
DA:717,108
DA:718,252
DA:725,252
DA:726,378
DA:727,126
DA:728,126
DA:729,18
DA:731,108
DA:732,108
DA:733,216
DA:740,216
DA:741,324
DA:742,108
DA:743,108
DA:744,18
DA:746,90
DA:747,90
DA:748,252
DA:755,252
DA:756,126
DA:757,378
DA:758,126
DA:759,126
DA:760,18
DA:762,108
DA:763,108
DA:764,288
DA:772,288
DA:773,432
DA:774,144
DA:775,144
DA:776,18
DA:778,126
DA:779,126
DA:780,288
DA:788,288
DA:789,432
DA:790,144
DA:791,144
DA:792,18
DA:794,126
DA:795,126
DA:796,288
DA:804,288
DA:805,432
DA:806,144
DA:807,144
DA:808,18
DA:810,126
DA:811,126
DA:812,288
DA:821,288
DA:822,432
DA:823,144
DA:824,144
DA:825,18
DA:827,126
DA:828,126
DA:829,288
DA:837,288
DA:838,432
DA:839,144
DA:840,144
DA:841,18
DA:843,126
DA:844,126
DA:845,324
DA:855,324
DA:856,486
DA:857,162
DA:858,162
DA:859,18
DA:861,144
DA:862,144
DA:863,252
DA:871,252
DA:872,378
DA:873,126
DA:874,126
DA:875,18
DA:877,108
DA:878,108
DA:879,4860
DA:880,4860
DA:881,108
DA:882,108
DA:883,108
DA:884,72
DA:885,54
DA:886,18
DA:887,18
DA:888,18
DA:889,18
DA:890,18
DA:891,18
DA:892,18
DA:893,18
DA:894,18
DA:895,18
DA:896,18
DA:897,126
DA:898,108
DA:899,108
DA:900,108
DA:902,18
DA:903,18
DA:904,90
DA:905,90
DA:906,90
DA:907,54
DA:909,36
DA:910,36
DA:911,36
DA:912,36
DA:913,36
DA:914,36
DA:915,36
DA:916,36
DA:917,108
DA:918,108
DA:919,108
DA:920,36
DA:922,72
DA:923,36
DA:925,36
DA:926,18
DA:928,18
DA:929,18
DA:930,18
DA:931,18
DA:932,18
DA:933,18
DA:934,18
DA:935,18
DA:936,18
DA:937,18
DA:938,18
DA:939,18
DA:940,18
DA:941,180
DA:942,162
DA:943,162
DA:944,162
DA:946,18
DA:947,18
DA:948,126
DA:949,126
DA:950,126
DA:951,72
DA:953,54
DA:954,36
DA:955,18
DA:956,18
DA:957,18
DA:958,18
DA:959,18
DA:960,18
DA:961,18
DA:962,18
DA:963,18
DA:964,18
DA:965,18
DA:966,18
DA:967,18
DA:968,18
DA:969,180
DA:970,162
DA:971,162
DA:972,162
DA:974,18
DA:975,18
DA:976,108
DA:977,108
DA:978,108
DA:979,36
DA:981,72
DA:982,36
DA:983,18
DA:984,18
DA:985,18
DA:986,18
DA:987,18
DA:988,18
DA:989,18
DA:990,18
DA:991,18
DA:992,18
DA:993,18
DA:994,18
DA:995,18
DA:996,162
DA:997,144
DA:998,144
DA:999,144
DA:1001,18
DA:1002,18
DA:1003,54
DA:1004,54
DA:1005,54
DA:1006,36
DA:1008,18
DA:1009,18
DA:1010,18
DA:1011,18
DA:1012,18
DA:1013,18
DA:1014,18
DA:1015,18
DA:1016,432
DA:1017,432
DA:1018,432
DA:1019,432
DA:1020,432
DA:1022,18
DA:1023,18
DA:1024,18
DA:1025,0
DA:1027,18
DA:1028,0
DA:1030,18
DA:1031,18
DA:1032,90
DA:1033,90
DA:1034,90
DA:1035,36
DA:1037,54
DA:1038,36
DA:1039,18
DA:1040,18
DA:1041,18
DA:1042,18
DA:1043,18
DA:1044,18
DA:1045,18
DA:1046,18
DA:1047,18
DA:1048,18
DA:1049,18
DA:1050,180
DA:1051,162
DA:1052,162
DA:1053,162
DA:1055,18
DA:1056,18
DA:1057,108
DA:1058,108
DA:1059,108
DA:1060,54
DA:1062,54
DA:1063,18
DA:1065,36
DA:1066,36
DA:1067,36
DA:1068,36
DA:1069,36
DA:1070,36
DA:1071,36
DA:1072,36
DA:1073,108
DA:1074,108
DA:1075,108
DA:1076,36
DA:1078,72
DA:1079,54
DA:1080,18
DA:1081,18
DA:1082,18
DA:1083,18
DA:1084,18
DA:1085,18
DA:1086,18
DA:1087,18
DA:1088,18
DA:1089,198
DA:1090,180
DA:1091,180
DA:1092,180
DA:1094,18
DA:1095,18
DA:1096,126
DA:1097,126
DA:1098,126
DA:1099,54
DA:1101,72
DA:1102,54
DA:1103,36
DA:1104,36
DA:1105,36
DA:1106,36
DA:1107,36
DA:1108,36
DA:1109,36
DA:1110,36
DA:1111,90
DA:1112,90
DA:1113,90
DA:1114,36
DA:1116,54
DA:1117,18
DA:1118,18
DA:1119,18
DA:1120,18
DA:1121,18
DA:1122,18
DA:1123,18
DA:1124,18
DA:1125,18
DA:1126,198
DA:1127,180
DA:1128,180
DA:1129,180
DA:1131,18
DA:1132,18
DA:1133,108
DA:1134,108
DA:1135,108
DA:1136,72
DA:1137,54
DA:1138,36
DA:1139,18
DA:1140,18
DA:1141,18
DA:1142,18
DA:1143,18
DA:1144,18
DA:1145,18
DA:1146,18
DA:1147,18
DA:1148,18
DA:1149,18
DA:1150,18
DA:1151,18
DA:1152,18
DA:1153,234
DA:1154,216
DA:1155,216
DA:1156,216
DA:1158,18
DA:1159,18
DA:1160,126
DA:1161,126
DA:1162,126
DA:1163,36
DA:1165,90
DA:1166,54
DA:1167,36
DA:1168,18
DA:1169,18
DA:1170,18
DA:1171,18
DA:1172,18
DA:1173,18
DA:1174,18
DA:1175,18
DA:1176,18
DA:1177,18
DA:1178,234
DA:1179,216
DA:1180,216
DA:1181,216
DA:1183,18
DA:1184,18
DA:1185,126
DA:1186,126
DA:1187,126
DA:1188,36
DA:1190,90
DA:1191,54
DA:1192,36
DA:1193,18
DA:1194,18
DA:1195,18
DA:1196,18
DA:1197,18
DA:1198,18
DA:1199,18
DA:1200,18
DA:1201,18
DA:1202,18
DA:1203,18
DA:1204,18
DA:1205,18
DA:1206,198
DA:1207,180
DA:1208,180
DA:1209,180
DA:1211,18
DA:1212,18
DA:1213,126
DA:1214,126
DA:1215,126
DA:1216,36
DA:1218,90
DA:1219,72
DA:1220,36
DA:1221,18
DA:1222,18
DA:1223,18
DA:1224,18
DA:1225,18
DA:1226,18
DA:1227,18
DA:1228,18
DA:1229,18
DA:1230,18
DA:1231,234
DA:1232,216
DA:1233,216
DA:1234,216
DA:1236,18
DA:1237,18
DA:1238,126
DA:1239,126
DA:1240,126
DA:1241,54
DA:1243,72
DA:1244,36
DA:1245,18
DA:1246,18
DA:1247,18
DA:1248,18
DA:1249,18
DA:1250,18
DA:1251,18
DA:1252,18
DA:1253,18
DA:1254,18
DA:1255,18
DA:1256,234
DA:1257,216
DA:1258,216
DA:1259,216
DA:1261,18
DA:1262,18
DA:1263,126
DA:1264,126
DA:1265,126
DA:1266,36
DA:1268,90
DA:1269,54
DA:1270,36
DA:1271,18
DA:1272,18
DA:1273,18
DA:1274,18
DA:1275,18
DA:1276,18
DA:1277,18
DA:1278,18
DA:1279,18
DA:1280,18
DA:1281,18
DA:1282,18
DA:1283,234
DA:1284,216
DA:1285,216
DA:1286,216
DA:1288,18
DA:1289,18
DA:1290,144
DA:1291,144
DA:1292,144
DA:1293,72
DA:1295,72
DA:1296,54
DA:1297,36
DA:1298,18
DA:1299,18
DA:1300,18
DA:1301,18
DA:1302,18
DA:1303,18
DA:1304,18
DA:1305,18
DA:1306,18
DA:1307,18
DA:1308,18
DA:1309,18
DA:1310,270
DA:1311,252
DA:1312,252
DA:1313,252
DA:1315,18
DA:1316,18
DA:1317,108
DA:1318,108
DA:1319,108
DA:1320,36
DA:1322,72
DA:1323,36
DA:1324,18
DA:1325,18
DA:1326,18
DA:1327,18
DA:1328,18
DA:1329,18
DA:1330,18
DA:1331,18
DA:1332,18
DA:1333,18
DA:1334,216
DA:1335,198
DA:1336,198
DA:1337,198
DA:1339,18
DA:1340,18
DA:1341,1116
DA:1342,1116
DA:1343,18
DA:1344,18
DA:1345,18
DA:1346,18
DA:1347,36
DA:1348,36
DA:1349,18
DA:1351,18
DA:1352,18
DA:1353,54
DA:1354,54
DA:1355,18
DA:1357,36
DA:1358,36
DA:1359,36
DA:1360,144
DA:1361,144
DA:1362,144
DA:1363,144
DA:1364,18
DA:1365,18
DA:1366,18
DA:1367,18
DA:1368,36
DA:1369,36
DA:1371,0
DA:1372,0
DA:1374,18
DA:1375,18
DA:1377,36
DA:1378,36
DA:1380,18
DA:1381,18
DA:1383,36
DA:1384,36
DA:1385,0
DA:1387,36
DA:1388,36
DA:1389,36
DA:1390,36
DA:1391,0
DA:1392,36
DA:1393,18
DA:1395,18
DA:1396,36
DA:1397,36
DA:1398,36
DA:1399,0
DA:1401,36
DA:1402,36
DA:1403,36
DA:1404,36
DA:1405,18
DA:1407,18
DA:1408,36
DA:1409,36
DA:1410,36
DA:1411,18
DA:1413,18
DA:1414,36
DA:1415,18
DA:1416,18
DA:1418,432
DA:1419,11016
DA:1420,10800
DA:1421,10800
DA:1422,432
DA:1423,108
DA:1424,108
DA:1425,216
DA:1426,108
DA:1427,108
DA:1428,108
DA:1429,108
DA:1430,216
DA:1431,216
DA:1432,216
DA:1433,216
DA:1434,216
DA:1435,216
DA:1436,18
DA:1437,18
DA:1438,18
DA:1439,54
DA:1440,90
DA:1441,108
DA:1442,108
DA:1443,108
DA:1444,108
DA:1445,18
DA:1446,18
DA:1448,90
DA:1449,36
DA:1450,36
DA:1452,54
DA:1453,18
DA:1454,18
DA:1456,36
DA:1457,36
DA:1458,36
DA:1460,54
DA:1461,36
DA:1462,36
DA:1464,36
DA:1465,36
DA:1467,54
DA:1468,54
DA:1469,126
DA:1470,72
DA:1471,54
DA:1472,54
DA:1473,72
DA:1474,54
DA:1476,18
DA:1477,18
DA:1478,36
DA:1479,18
DA:1480,18
DA:1481,18
DA:1482,18
DA:1483,18
DA:1485,18
DA:1486,36
DA:1487,36
DA:1488,18
DA:1489,18
DA:1490,18
DA:1491,18
DA:1492,18
DA:1493,18
DA:1494,18
DA:1495,18
DA:1496,72
DA:1497,72
DA:1498,36
DA:1500,36
DA:1501,72
DA:1502,126
DA:1503,126
DA:1505,18
DA:1506,18
DA:1508,18
DA:1509,18
DA:1511,18
DA:1512,18
DA:1514,1224
DA:1515,612
DA:1516,1224
DA:1517,126
DA:1518,126
DA:1519,54
DA:1521,72
DA:1522,0
DA:1524,72
DA:1525,72
DA:1526,72
DA:1527,72
DA:1528,126
DA:1529,54
DA:1530,54
DA:1531,36
DA:1533,18
DA:1534,18
DA:1535,54
DA:1536,54
DA:1537,54
DA:1538,36
DA:1540,18
DA:1541,18
DA:1542,18
DA:1543,54
DA:1544,126
DA:1545,126
DA:1546,54
DA:1548,72
DA:1549,72
DA:1550,126
DA:1551,162
DA:1552,162
DA:1553,72
DA:1555,90
DA:1556,72
DA:1558,18
DA:1559,162
DA:1560,126
DA:1561,126
DA:1562,36
DA:1564,90
DA:1565,126
DA:1566,36
DA:1567,36
DA:1568,18
DA:1570,18
DA:1571,36
DA:1572,108
DA:1573,108
DA:1574,54
DA:1576,54
DA:1577,108
DA:1578,90
DA:1579,90
DA:1580,36
DA:1582,54
DA:1583,90
DA:1584,90
DA:1585,90
DA:1586,36
DA:1588,54
DA:1589,18
DA:1591,36
DA:1592,36
DA:1593,90
DA:1594,36
DA:1595,36
DA:1596,36
DA:1598,0
DA:1599,36
DA:1600,72
DA:1601,72
DA:1603,36
DA:1604,36
DA:1606,18
DA:1607,18
LF:1295
LH:1266
end_of_record
TN:
SF:/Users/jamesmaxwell/student/sem3/ppois/lab2/gallery.hpp
FNL:0,106
FNA:0,0,_ZN28UnderexposedArtworkExceptionD0Ev
FNA:0,0,_ZN28UnderexposedArtworkExceptionD1Ev
FNA:0,0,_ZN28UnderexposedArtworkExceptionD2Ev
FNL:1,113,113
FNA:1,0,_ZN28UnderexposedArtworkExceptionC1EPKc
FNA:1,0,_ZN28UnderexposedArtworkExceptionC2EPKc
FNL:2,120
FNA:2,0,_ZN16StorageExceptionD0Ev
FNA:2,18,_ZN16StorageExceptionD1Ev
FNA:2,18,_ZN16StorageExceptionD2Ev
FNL:3,127,127
FNA:3,18,_ZN16StorageExceptionC1EPKc
FNA:3,18,_ZN16StorageExceptionC2EPKc
FNL:4,1380,1380
FNA:4,0,_ZN10ExhibitionD0Ev
FNA:4,0,_ZN10ExhibitionD1Ev
FNA:4,2862,_ZN10ExhibitionD2Ev
FNL:5,1392,1393
FNA:5,2340,_ZNK10Exhibition7getNameEv
FNL:6,1437
FNA:6,0,_ZN18PaintingExhibitionD0Ev
FNA:6,540,_ZN18PaintingExhibitionD1Ev
FNA:6,540,_ZN18PaintingExhibitionD2Ev
FNL:7,1479
FNA:7,0,_ZN19SculptureExhibitionD0Ev
FNA:7,90,_ZN19SculptureExhibitionD1Ev
FNA:7,90,_ZN19SculptureExhibitionD2Ev
FNL:8,1518
FNA:8,0,_ZN21PhotographyExhibitionD0Ev
FNA:8,126,_ZN21PhotographyExhibitionD1Ev
FNA:8,126,_ZN21PhotographyExhibitionD2Ev
FNL:9,1563
FNA:9,0,_ZN20MixedMediaExhibitionD0Ev
FNA:9,144,_ZN20MixedMediaExhibitionD1Ev
FNA:9,144,_ZN20MixedMediaExhibitionD2Ev
FNL:10,1614
FNA:10,0,_ZN20DigitalArtExhibitionD0Ev
FNA:10,126,_ZN20DigitalArtExhibitionD1Ev
FNA:10,126,_ZN20DigitalArtExhibitionD2Ev
FNL:11,162
FNA:11,0,_ZN26InsufficientSpaceExceptionD0Ev
FNA:11,54,_ZN26InsufficientSpaceExceptionD1Ev
FNA:11,54,_ZN26InsufficientSpaceExceptionD2Ev
FNL:12,1659
FNA:12,0,_ZN17VintageExhibitionD0Ev
FNA:12,72,_ZN17VintageExhibitionD1Ev
FNA:12,72,_ZN17VintageExhibitionD2Ev
FNL:13,169,169
FNA:13,54,_ZN26InsufficientSpaceExceptionC1EPKc
FNA:13,54,_ZN26InsufficientSpaceExceptionC2EPKc
FNL:14,1701
FNA:14,0,_ZN22ContemporaryExhibitionD0Ev
FNA:14,108,_ZN22ContemporaryExhibitionD1Ev
FNA:14,108,_ZN22ContemporaryExhibitionD2Ev
FNL:15,1746
FNA:15,0,_ZN20MinimalistExhibitionD0Ev
FNA:15,108,_ZN20MinimalistExhibitionD1Ev
FNA:15,108,_ZN20MinimalistExhibitionD2Ev
FNL:16,176
FNA:16,0,_ZN22InvalidAccessExceptionD0Ev
FNA:16,18,_ZN22InvalidAccessExceptionD1Ev
FNA:16,18,_ZN22InvalidAccessExceptionD2Ev
FNL:17,1782
FNA:17,0,_ZN18AbstractExhibitionD0Ev
FNA:17,126,_ZN18AbstractExhibitionD1Ev
FNA:17,126,_ZN18AbstractExhibitionD2Ev
FNL:18,1827
FNA:18,0,_ZN18PortraitExhibitionD0Ev
FNA:18,126,_ZN18PortraitExhibitionD1Ev
FNA:18,126,_ZN18PortraitExhibitionD2Ev
FNL:19,183,183
FNA:19,18,_ZN22InvalidAccessExceptionC1EPKc
FNA:19,18,_ZN22InvalidAccessExceptionC2EPKc
FNL:20,1869
FNA:20,0,_ZN19LandscapeExhibitionD0Ev
FNA:20,108,_ZN19LandscapeExhibitionD1Ev
FNA:20,108,_ZN19LandscapeExhibitionD2Ev
FNL:21,1911
FNA:21,0,_ZN21RestorationExhibitionD0Ev
FNA:21,126,_ZN21RestorationExhibitionD1Ev
FNA:21,126,_ZN21RestorationExhibitionD2Ev
FNL:22,1953
FNA:22,0,_ZN19TemporaryExhibitionD0Ev
FNA:22,144,_ZN19TemporaryExhibitionD1Ev
FNA:22,144,_ZN19TemporaryExhibitionD2Ev
FNL:23,1998
FNA:23,0,_ZN19PermanentExhibitionD0Ev
FNA:23,144,_ZN19PermanentExhibitionD1Ev
FNA:23,144,_ZN19PermanentExhibitionD2Ev
FNL:24,2043
FNA:24,0,_ZN21InteractiveExhibitionD0Ev
FNA:24,144,_ZN21InteractiveExhibitionD1Ev
FNA:24,144,_ZN21InteractiveExhibitionD2Ev
FNL:25,2088
FNA:25,0,_ZN18ThematicExhibitionD0Ev
FNA:25,144,_ZN18ThematicExhibitionD1Ev
FNA:25,144,_ZN18ThematicExhibitionD2Ev
FNL:26,2136
FNA:26,0,_ZN23RetrospectiveExhibitionD0Ev
FNA:26,144,_ZN23RetrospectiveExhibitionD1Ev
FNA:26,144,_ZN23RetrospectiveExhibitionD2Ev
FNL:27,2181
FNA:27,0,_ZN15GroupExhibitionD0Ev
FNA:27,162,_ZN15GroupExhibitionD1Ev
FNA:27,162,_ZN15GroupExhibitionD2Ev
FNL:28,22,29
FNA:28,0,_ZN24ArtworkNotFoundExceptionD0Ev
FNA:28,630,_ZN24ArtworkNotFoundExceptionD1Ev
FNA:28,630,_ZN24ArtworkNotFoundExceptionD2Ev
FNL:29,2232
FNA:29,0,_ZN14SoloExhibitionD0Ev
FNA:29,126,_ZN14SoloExhibitionD1Ev
FNA:29,126,_ZN14SoloExhibitionD2Ev
FNL:30,29,29
FNA:30,630,_ZN24ArtworkNotFoundExceptionC1EPKc
FNA:30,630,_ZN24ArtworkNotFoundExceptionC2EPKc
FNL:31,36
FNA:31,0,_ZN25NotEnoughArtworkExceptionD0Ev
FNA:31,18,_ZN25NotEnoughArtworkExceptionD1Ev
FNA:31,18,_ZN25NotEnoughArtworkExceptionD2Ev
FNL:32,43,43
FNA:32,18,_ZN25NotEnoughArtworkExceptionC1EPKc
FNA:32,18,_ZN25NotEnoughArtworkExceptionC2EPKc
FNL:33,50
FNA:33,0,_ZN25ToolNotAvailableExceptionD0Ev
FNA:33,1296,_ZN25ToolNotAvailableExceptionD1Ev
FNA:33,1296,_ZN25ToolNotAvailableExceptionD2Ev
FNL:34,57,57
FNA:34,1296,_ZN25ToolNotAvailableExceptionC1EPKc
FNA:34,1296,_ZN25ToolNotAvailableExceptionC2EPKc
FNL:35,64
FNA:35,0,_ZN25InvalidConditionExceptionD0Ev
FNA:35,108,_ZN25InvalidConditionExceptionD1Ev
FNA:35,108,_ZN25InvalidConditionExceptionD2Ev
FNL:36,71,71
FNA:36,108,_ZN25InvalidConditionExceptionC1EPKc
FNA:36,108,_ZN25InvalidConditionExceptionC2EPKc
FNL:37,78
FNA:37,0,_ZN20TimerNotSetExceptionD0Ev
FNA:37,360,_ZN20TimerNotSetExceptionD1Ev
FNA:37,360,_ZN20TimerNotSetExceptionD2Ev
FNL:38,85,85
FNA:38,360,_ZN20TimerNotSetExceptionC1EPKc
FNA:38,360,_ZN20TimerNotSetExceptionC2EPKc
FNL:39,92
FNA:39,0,_ZN27OverexposedArtworkExceptionD0Ev
FNA:39,0,_ZN27OverexposedArtworkExceptionD1Ev
FNA:39,0,_ZN27OverexposedArtworkExceptionD2Ev
FNL:40,99,99
FNA:40,0,_ZN27OverexposedArtworkExceptionC1EPKc
FNA:40,0,_ZN27OverexposedArtworkExceptionC2EPKc
FNF:41
FNH:37
DA:29,1260
DA:43,36
DA:57,2592
DA:71,216
DA:85,720
DA:99,0
DA:113,0
DA:127,36
DA:169,108
DA:183,36
DA:1380,2862
DA:1392,2340
DA:1393,2340
LF:13
LH:11
end_of_record
TN:
SF:/Users/jamesmaxwell/student/sem3/ppois/lab2/main.cpp
FNL:0,141,304
FNA:0,0,_Z16runGallerySystemb
FNL:1,17,18
FNA:1,0,_ZN12_GLOBAL__N_113createArtworkEPKcddbP9Dimensioni
FNL:2,21,25
FNA:2,0,_ZN12_GLOBAL__N_120initializeDimensionsER9DimensionS1_S1_
FNL:3,27,85
FNA:3,0,_ZN12_GLOBAL__N_127initializeArtworkCollectionERNSt3__16vectorI7ArtworkNS0_9allocatorIS2_EEEEP9Dimension
FNL:4,87,129
FNA:4,0,_ZN12_GLOBAL__N_115initializeToolsERNSt3__16vectorI5FrameNS0_9allocatorIS2_EEEERNS1_I8LightingNS3_IS7_EEEERNS1_I14SecurityCameraNS3_ISB_EEEERNS1_I12DisplayStandNS3_ISF_EEEERNS1_I14RestorationKitNS3_ISJ_EEEERNS1_I11CleaningKitNS3_ISN_EEEERNS1_I14ClimateControlNS3_ISR_EEEERNS1_I14SecuritySystemNS3_ISV_EEEERNS1_I5TimerNS3_ISZ_EEEE
FNF:5
FNH:0
DA:17,0
DA:18,0
DA:21,0
DA:22,0
DA:23,0
DA:24,0
DA:25,0
DA:27,0
DA:33,0
DA:74,0
DA:75,0
DA:76,0
DA:77,0
DA:78,0
DA:79,0
DA:80,0
DA:81,0
DA:82,0
DA:84,0
DA:85,0
DA:87,0
DA:98,0
DA:99,0
DA:100,0
DA:102,0
DA:103,0
DA:104,0
DA:106,0
DA:107,0
DA:108,0
DA:110,0
DA:111,0
DA:112,0
DA:114,0
DA:115,0
DA:117,0
DA:118,0
DA:120,0
DA:121,0
DA:123,0
DA:124,0
DA:126,0
DA:127,0
DA:128,0
DA:129,0
DA:141,0
DA:143,0
DA:144,0
DA:146,0
DA:147,0
DA:149,0
DA:150,0
DA:151,0
DA:152,0
DA:153,0
DA:154,0
DA:155,0
DA:156,0
DA:157,0
DA:159,0
DA:162,0
DA:163,0
DA:165,0
DA:166,0
DA:169,0
DA:171,0
DA:172,0
DA:175,0
DA:177,0
DA:178,0
DA:181,0
DA:183,0
DA:184,0
DA:187,0
DA:189,0
DA:190,0
DA:193,0
DA:195,0
DA:196,0
DA:199,0
DA:201,0
DA:202,0
DA:205,0
DA:207,0
DA:210,0
DA:212,0
DA:213,0
DA:216,0
DA:218,0
DA:219,0
DA:222,0
DA:224,0
DA:225,0
DA:228,0
DA:230,0
DA:231,0
DA:234,0
DA:236,0
DA:237,0
DA:240,0
DA:242,0
DA:243,0
DA:246,0
DA:248,0
DA:249,0
DA:252,0
DA:254,0
DA:255,0
DA:258,0
DA:260,0
DA:261,0
DA:264,0
DA:266,0
DA:267,0
DA:270,0
DA:272,0
DA:273,0
DA:276,0
DA:277,0
DA:278,0
DA:280,0
DA:281,0
DA:283,0
DA:291,0
DA:292,0
DA:295,0
DA:296,0
DA:297,0
DA:298,0
DA:300,0
DA:301,0
DA:302,0
DA:303,0
DA:304,0
LF:134
LH:0
end_of_record
